; Function Attrs: nounwind uwtable
define internal noundef ptr @InstructionSequenceType_use_label(ptr noundef %0, ptr noundef %1, i64 noundef %2, ptr noundef %3) #1 {
  %5 = alloca [1 x ptr], align 8
  call void @llvm.lifetime.start.p0(i64 8, ptr nonnull %5) #6
  %6 = icmp eq ptr %3, null
  %7 = icmp eq i64 %2, 1
  %or.cond3 = and i1 %7, %6
  %8 = icmp ne ptr %1, null
  %or.cond5 = and i1 %8, %or.cond3
  br i1 %or.cond5, label %.thread, label %9

9:                                                ; preds = %4
  %10 = call ptr @_PyArg_UnpackKeywords(ptr noundef %1, i64 noundef %2, ptr noundef null, ptr noundef %3, ptr noundef nonnull @InstructionSequenceType_use_label._parser, i32 noundef 1, i32 noundef 1, i32 noundef 0, i32 noundef 0, ptr noundef nonnull %5) #6
  %.not = icmp eq ptr %10, null
  br i1 %.not, label %InstructionSequenceType_use_label_impl.exit, label %.thread

.thread:                                          ; preds = %4, %9
  %11 = phi ptr [ %10, %9 ], [ %1, %4 ]
  %12 = load ptr, ptr %11, align 8, !tbaa !56
  %13 = call i32 @PyLong_AsInt(ptr noundef %12) #6
  %14 = icmp eq i32 %13, -1
  br i1 %14, label %32, label %.split

.split:                                           ; preds = %.thread
  %15 = getelementptr inbounds nuw i8, ptr %0, i64 48
  %16 = load i32, ptr %15, align 8, !tbaa !14
  %17 = getelementptr inbounds nuw i8, ptr %0, i64 40
  %18 = call i32 @_PyCompile_EnsureArrayLargeEnough(i32 noundef %13, ptr noundef nonnull %17, ptr noundef nonnull %15, i32 noundef 10, i64 noundef 4) #6
  %19 = icmp eq i32 %18, -1
  br i1 %19, label %InstructionSequenceType_use_label_impl.exit, label %.preheader.i.i

.preheader.i.i:                                   ; preds = %.split
  %20 = load i32, ptr %15, align 8, !tbaa !14
  %21 = icmp slt i32 %16, %20
  %.pre.i.i = load ptr, ptr %17, align 8, !tbaa !15
  br i1 %21, label %.lr.ph.i.i, label %_PyInstructionSequence_UseLabel.exit.i

.lr.ph.i.i:                                       ; preds = %.preheader.i.i
  %22 = sext i32 %16 to i64
  br label %23

23:                                               ; preds = %23, %.lr.ph.i.i
  %indvars.iv.i.i = phi i64 [ %22, %.lr.ph.i.i ], [ %indvars.iv.next.i.i, %23 ]
  %24 = getelementptr i32, ptr %.pre.i.i, i64 %indvars.iv.i.i
  store i32 -111, ptr %24, align 4, !tbaa !17
  %indvars.iv.next.i.i = add nsw i64 %indvars.iv.i.i, 1
  %25 = load i32, ptr %15, align 8, !tbaa !14
  %26 = sext i32 %25 to i64
  %27 = icmp slt i64 %indvars.iv.next.i.i, %26
  br i1 %27, label %23, label %_PyInstructionSequence_UseLabel.exit.i, !llvm.loop !18

_PyInstructionSequence_UseLabel.exit.i:           ; preds = %23, %.preheader.i.i
  %28 = getelementptr inbounds nuw i8, ptr %0, i64 28
  %29 = load i32, ptr %28, align 4, !tbaa !16
  %30 = sext i32 %13 to i64
  %31 = getelementptr i32, ptr %.pre.i.i, i64 %30
  store i32 %29, ptr %31, align 4, !tbaa !17
  br label %InstructionSequenceType_use_label_impl.exit

32:                                               ; preds = %.thread
  %33 = call ptr @PyErr_Occurred() #6
  %.not22 = icmp eq ptr %33, null
  br i1 %.not22, label %.split18, label %InstructionSequenceType_use_label_impl.exit

.split18:                                         ; preds = %32
  %34 = getelementptr inbounds nuw i8, ptr %0, i64 48
  %35 = load i32, ptr %34, align 8, !tbaa !14
  %36 = getelementptr inbounds nuw i8, ptr %0, i64 40
  %37 = call i32 @_PyCompile_EnsureArrayLargeEnough(i32 noundef -1, ptr noundef nonnull %36, ptr noundef nonnull %34, i32 noundef 10, i64 noundef 4) #6
  %38 = icmp eq i32 %37, -1
  br i1 %38, label %InstructionSequenceType_use_label_impl.exit, label %.preheader.i.i23

.preheader.i.i23:                                 ; preds = %.split18
  %39 = load i32, ptr %34, align 8, !tbaa !14
  %40 = icmp slt i32 %35, %39
  %.pre.i.i24 = load ptr, ptr %36, align 8, !tbaa !15
  br i1 %40, label %.lr.ph.i.i26, label %_PyInstructionSequence_UseLabel.exit.i25

.lr.ph.i.i26:                                     ; preds = %.preheader.i.i23
  %41 = sext i32 %35 to i64
  br label %42

42:                                               ; preds = %42, %.lr.ph.i.i26
  %indvars.iv.i.i27 = phi i64 [ %41, %.lr.ph.i.i26 ], [ %indvars.iv.next.i.i28, %42 ]
  %43 = getelementptr i32, ptr %.pre.i.i24, i64 %indvars.iv.i.i27
  store i32 -111, ptr %43, align 4, !tbaa !17
  %indvars.iv.next.i.i28 = add nsw i64 %indvars.iv.i.i27, 1
  %44 = load i32, ptr %34, align 8, !tbaa !14
  %45 = sext i32 %44 to i64
  %46 = icmp slt i64 %indvars.iv.next.i.i28, %45
  br i1 %46, label %42, label %_PyInstructionSequence_UseLabel.exit.i25, !llvm.loop !18

_PyInstructionSequence_UseLabel.exit.i25:         ; preds = %42, %.preheader.i.i23
  %47 = getelementptr inbounds nuw i8, ptr %0, i64 28
  %48 = load i32, ptr %47, align 4, !tbaa !16
  %49 = getelementptr i8, ptr %.pre.i.i24, i64 -4
  store i32 %48, ptr %49, align 4, !tbaa !17
  br label %InstructionSequenceType_use_label_impl.exit

InstructionSequenceType_use_label_impl.exit:      ; preds = %_PyInstructionSequence_UseLabel.exit.i25, %.split18, %_PyInstructionSequence_UseLabel.exit.i, %.split, %32, %9
  %.0 = phi ptr [ null, %32 ], [ null, %9 ], [ @_Py_NoneStruct, %_PyInstructionSequence_UseLabel.exit.i ], [ null, %.split ], [ @_Py_NoneStruct, %_PyInstructionSequence_UseLabel.exit.i25 ], [ null, %.split18 ]
  call void @llvm.lifetime.end.p0(i64 8, ptr nonnull %5) #6
  ret ptr %.0
}